; Function Attrs: mustprogress nofree nounwind memory(read, argmem: readwrite, inaccessiblemem: none) uwtable
define hidden range(i32 -46, 1) i32 @mbedtls_oid_get_sig_alg(ptr noundef readonly captures(address_is_null) %0, ptr noundef writeonly captures(none) %1, ptr noundef writeonly captures(none) %2) local_unnamed_addr #0 {
  %4 = icmp eq ptr %0, null
  br i1 %4, label %_ZL21oid_sig_alg_from_asn1PK16mbedtls_asn1_buf.exit.thread, label %.preheader.i

.preheader.i:                                     ; preds = %3
  %5 = getelementptr inbounds nuw i8, ptr %0, i64 16
  %6 = getelementptr inbounds nuw i8, ptr %0, i64 8
  %7 = load i64, ptr %6, align 8, !tbaa !3
  br label %8

8:                                                ; preds = %16, %.preheader.i
  %9 = phi ptr [ @.str.121, %.preheader.i ], [ %18, %16 ]
  %.018.i = phi ptr [ @_ZL11oid_sig_alg, %.preheader.i ], [ %17, %16 ]
  %10 = getelementptr inbounds nuw i8, ptr %.018.i, i64 8
  %11 = load i64, ptr %10, align 8, !tbaa !11
  %12 = icmp eq i64 %11, %7
  br i1 %12, label %13, label %16

13:                                               ; preds = %8
  %14 = load ptr, ptr %5, align 8, !tbaa !13
  %bcmp.i = tail call i32 @bcmp(ptr nonnull %9, ptr %14, i64 %7)
  %15 = icmp eq i32 %bcmp.i, 0
  br i1 %15, label %_ZL21oid_sig_alg_from_asn1PK16mbedtls_asn1_buf.exit, label %16

16:                                               ; preds = %13, %8
  %17 = getelementptr inbounds nuw i8, ptr %.018.i, i64 40
  %18 = load ptr, ptr %17, align 8, !tbaa !14
  %.not.i = icmp eq ptr %18, null
  br i1 %.not.i, label %_ZL21oid_sig_alg_from_asn1PK16mbedtls_asn1_buf.exit.thread, label %8, !llvm.loop !26

_ZL21oid_sig_alg_from_asn1PK16mbedtls_asn1_buf.exit: ; preds = %13
  %19 = getelementptr inbounds nuw i8, ptr %.018.i, i64 32
  %20 = load i32, ptr %19, align 8, !tbaa !31
  store i32 %20, ptr %1, align 4, !tbaa !32
  %21 = getelementptr inbounds nuw i8, ptr %.018.i, i64 36
  %22 = load i32, ptr %21, align 4, !tbaa !33
  store i32 %22, ptr %2, align 4, !tbaa !34
  br label %_ZL21oid_sig_alg_from_asn1PK16mbedtls_asn1_buf.exit.thread

_ZL21oid_sig_alg_from_asn1PK16mbedtls_asn1_buf.exit.thread: ; preds = %16, %3, %_ZL21oid_sig_alg_from_asn1PK16mbedtls_asn1_buf.exit
  %.0 = phi i32 [ 0, %_ZL21oid_sig_alg_from_asn1PK16mbedtls_asn1_buf.exit ], [ -46, %3 ], [ -46, %16 ]
  ret i32 %.0
}